target datalayout = "e-m:e-p270:32:32-p271:32:32-p272:64:64-i64:64-i128:128-f80:128-n8:16:32:64-S128"
target triple = "x86_64-pc-linux-gnu"

%struct._zval_struct = type { %union._zend_value, %union.anon, %union.anon.2 }
%union._zend_value = type { i64 }
%union.anon = type { i32 }
%union.anon.2 = type { i32 }
%struct._zend_refcounted_h = type { i32, %union.anon.3 }
%union.anon.3 = type { i32 }
%struct._zend_constant = type { %struct._zval_struct, ptr, ptr }
%struct._zend_string = type { %struct._zend_refcounted_h, i64, i64, [1 x i8] }

@zend_string_init_interned = external global ptr, align 8

; Function Attrs: alwaysinline nounwind uwtable
define internal i32 @zval_gc_flags(i32 noundef %0) #2 {
  %2 = alloca i32, align 4
  store i32 %0, ptr %2, align 4, !tbaa !22
  %3 = load i32, ptr %2, align 4, !tbaa !22
  %4 = lshr i32 %3, 0
  %5 = and i32 %4, 1008
  ret i32 %5
}

; Function Attrs: nounwind uwtable
define dso_local void @zend_register_stringl_constant(ptr noundef %0, i64 noundef %1, ptr noundef %2, i64 noundef %3, i32 noundef %4, i32 noundef %5) #0 {
  %7 = alloca ptr, align 8
  %8 = alloca i64, align 8
  %9 = alloca ptr, align 8
  %10 = alloca i64, align 8
  %11 = alloca i32, align 4
  %12 = alloca i32, align 4
  %13 = alloca %struct._zend_constant, align 8
  %14 = alloca ptr, align 8
  %15 = alloca ptr, align 8
  store ptr %0, ptr %7, align 8, !tbaa !56
  store i64 %1, ptr %8, align 8, !tbaa !57
  store ptr %2, ptr %9, align 8, !tbaa !56
  store i64 %3, ptr %10, align 8, !tbaa !57
  store i32 %4, ptr %11, align 4, !tbaa !22
  store i32 %5, ptr %12, align 4, !tbaa !22
  call void @llvm.lifetime.start.p0(i64 32, ptr %13) #12
  br label %16

16:                                               ; preds = %6
  call void @llvm.lifetime.start.p0(i64 8, ptr %14) #12
  %17 = getelementptr inbounds nuw %struct._zend_constant, ptr %13, i32 0, i32 0
  store ptr %17, ptr %14, align 8, !tbaa !4
  call void @llvm.lifetime.start.p0(i64 8, ptr %15) #12
  %18 = load ptr, ptr @zend_string_init_interned, align 8, !tbaa !54
  %19 = load ptr, ptr %9, align 8, !tbaa !56
  %20 = load i64, ptr %10, align 8, !tbaa !57
  %21 = load i32, ptr %11, align 4, !tbaa !22
  %22 = and i32 %21, 1
  %23 = icmp ne i32 %22, 0
  %24 = call ptr %18(ptr noundef %19, i64 noundef %20, i1 noundef zeroext %23)
  store ptr %24, ptr %15, align 8, !tbaa !17
  %25 = load ptr, ptr %15, align 8, !tbaa !17
  %26 = load ptr, ptr %14, align 8, !tbaa !4
  %27 = getelementptr inbounds nuw %struct._zval_struct, ptr %26, i32 0, i32 0
  store ptr %25, ptr %27, align 8, !tbaa !9
  %28 = load ptr, ptr %15, align 8, !tbaa !17
  %29 = getelementptr inbounds nuw %struct._zend_string, ptr %28, i32 0, i32 0
  %30 = getelementptr inbounds nuw %struct._zend_refcounted_h, ptr %29, i32 0, i32 1
  %31 = load i32, ptr %30, align 4, !tbaa !9
  %32 = call i32 @zval_gc_flags(i32 noundef %31)
  %33 = and i32 %32, 64
  %34 = icmp ne i32 %33, 0
  %35 = select i1 %34, i32 6, i32 262
  %36 = load ptr, ptr %14, align 8, !tbaa !4
  %37 = getelementptr inbounds nuw %struct._zval_struct, ptr %36, i32 0, i32 1
  store i32 %35, ptr %37, align 8, !tbaa !9
  call void @llvm.lifetime.end.p0(i64 8, ptr %15) #12
  call void @llvm.lifetime.end.p0(i64 8, ptr %14) #12
  br label %38

38:                                               ; preds = %16
  br label %39

39:                                               ; preds = %38
  br label %40

40:                                               ; preds = %39
  %41 = load i32, ptr %11, align 4, !tbaa !22
  %42 = and i32 %41, 255
  %43 = load i32, ptr %12, align 4, !tbaa !22
  %44 = shl i32 %43, 8
  %45 = or i32 %42, %44
  %46 = getelementptr inbounds nuw %struct._zend_constant, ptr %13, i32 0, i32 0
  %47 = getelementptr inbounds nuw %struct._zval_struct, ptr %46, i32 0, i32 2
  store i32 %45, ptr %47, align 4, !tbaa !9
  br label %48

48:                                               ; preds = %40
  br label %49

49:                                               ; preds = %48
  %50 = load ptr, ptr @zend_string_init_interned, align 8, !tbaa !54
  %51 = load ptr, ptr %7, align 8, !tbaa !56
  %52 = load i64, ptr %8, align 8, !tbaa !57
  %53 = load i32, ptr %11, align 4, !tbaa !22
  %54 = and i32 %53, 1
  %55 = icmp ne i32 %54, 0
  %56 = call ptr %50(ptr noundef %51, i64 noundef %52, i1 noundef zeroext %55)
  %57 = getelementptr inbounds nuw %struct._zend_constant, ptr %13, i32 0, i32 1
  store ptr %56, ptr %57, align 8, !tbaa !12
  %58 = call i32 @zend_register_constant(ptr noundef %13)
  call void @llvm.lifetime.end.p0(i64 32, ptr %13) #12
  ret void
}